target datalayout = "e-m:e-p270:32:32-p271:32:32-p272:64:64-i64:64-i128:128-f80:128-n8:16:32:64-S128"
target triple = "x86_64-pc-linux-gnu"

%struct.Ivy_Man_t_ = type { ptr, ptr, ptr, ptr, ptr, %struct.Ivy_Obj_t_, [8 x i32], i32, i32, ptr, i32, i32, i32, i32, ptr, i32, ptr, ptr, ptr, i32, ptr, ptr, ptr, i64, i64 }
%struct.Ivy_Obj_t_ = type { i32, i32, i32, i32, ptr, ptr, ptr, ptr, ptr, ptr, ptr, ptr }
%struct.Ivy_FraigMan_t_ = type { ptr, i64, i64, ptr, ptr, i32, ptr, ptr, i32, ptr, ptr, %struct.Ivy_FraigList_t_, %struct.Ivy_FraigList_t_, i32, ptr, i32, ptr, ptr, i32, i32, i32, i32, i32, i32, i32, i32, i32, i32, i32, i32, i32, i64, i64, i64, i64, i64, i64, i64, i64, i64, i64 }
%struct.Ivy_FraigList_t_ = type { ptr, ptr, i32 }
%struct.Ivy_FraigSim_t_ = type { i32, ptr, ptr, ptr, [0 x i32] }
%struct.Vec_Ptr_t_ = type { i32, i32, ptr }

; Function Attrs: inlinehint nounwind uwtable
define internal void @Ivy_InfoSetBit(ptr noundef %0, i32 noundef %1) #4 {
  %3 = alloca ptr, align 8
  %4 = alloca i32, align 4
  store ptr %0, ptr %3, align 8, !tbaa !139
  store i32 %1, ptr %4, align 4, !tbaa !44
  %5 = load i32, ptr %4, align 4, !tbaa !44
  %6 = and i32 %5, 31
  %7 = shl i32 1, %6
  %8 = load ptr, ptr %3, align 8, !tbaa !139
  %9 = load i32, ptr %4, align 4, !tbaa !44
  %10 = ashr i32 %9, 5
  %11 = sext i32 %10 to i64
  %12 = getelementptr inbounds i32, ptr %8, i64 %11
  %13 = load i32, ptr %12, align 4, !tbaa !44
  %14 = or i32 %13, %7
  store i32 %14, ptr %12, align 4, !tbaa !44
  ret void
}

; Function Attrs: inlinehint nounwind uwtable
define internal i32 @Ivy_InfoHasBit(ptr noundef %0, i32 noundef %1) #4 {
  %3 = alloca ptr, align 8
  %4 = alloca i32, align 4
  store ptr %0, ptr %3, align 8, !tbaa !139
  store i32 %1, ptr %4, align 4, !tbaa !44
  %5 = load ptr, ptr %3, align 8, !tbaa !139
  %6 = load i32, ptr %4, align 4, !tbaa !44
  %7 = ashr i32 %6, 5
  %8 = sext i32 %7 to i64
  %9 = getelementptr inbounds i32, ptr %5, i64 %8
  %10 = load i32, ptr %9, align 4, !tbaa !44
  %11 = load i32, ptr %4, align 4, !tbaa !44
  %12 = and i32 %11, 31
  %13 = shl i32 1, %12
  %14 = and i32 %10, %13
  %15 = icmp ugt i32 %14, 0
  %16 = zext i1 %15 to i32
  ret i32 %16
}

; Function Attrs: inlinehint nounwind uwtable
define internal ptr @Ivy_ObjSim(ptr noundef %0) #4 {
  %2 = alloca ptr, align 8
  store ptr %0, ptr %2, align 8, !tbaa !72
  %3 = load ptr, ptr %2, align 8, !tbaa !72
  %4 = getelementptr inbounds nuw %struct.Ivy_Obj_t_, ptr %3, i32 0, i32 6
  %5 = load ptr, ptr %4, align 8, !tbaa !126
  ret ptr %5
}

; Function Attrs: inlinehint nounwind uwtable
define internal ptr @Vec_PtrEntry(ptr noundef %0, i32 noundef %1) #4 {
  %3 = alloca ptr, align 8
  %4 = alloca i32, align 4
  store ptr %0, ptr %3, align 8, !tbaa !130
  store i32 %1, ptr %4, align 4, !tbaa !44
  %5 = load ptr, ptr %3, align 8, !tbaa !130
  %6 = getelementptr inbounds nuw %struct.Vec_Ptr_t_, ptr %5, i32 0, i32 2
  %7 = load ptr, ptr %6, align 8, !tbaa !133
  %8 = load i32, ptr %4, align 4, !tbaa !44
  %9 = sext i32 %8 to i64
  %10 = getelementptr inbounds ptr, ptr %7, i64 %9
  %11 = load ptr, ptr %10, align 8, !tbaa !22
  ret ptr %11
}

; Function Attrs: inlinehint nounwind uwtable
define internal i32 @Vec_PtrSize(ptr noundef %0) #4 {
  %2 = alloca ptr, align 8
  store ptr %0, ptr %2, align 8, !tbaa !130
  %3 = load ptr, ptr %2, align 8, !tbaa !130
  %4 = getelementptr inbounds nuw %struct.Vec_Ptr_t_, ptr %3, i32 0, i32 1
  %5 = load i32, ptr %4, align 4, !tbaa !131
  ret i32 %5
}

; Function Attrs: nounwind uwtable
define i32 @Ivy_FraigSelectBestPat(ptr noundef %0) #0 {
  %2 = alloca i32, align 4
  %3 = alloca ptr, align 8
  %4 = alloca ptr, align 8
  %5 = alloca ptr, align 8
  %6 = alloca i32, align 4
  %7 = alloca i32, align 4
  %8 = alloca i32, align 4
  %9 = alloca i32, align 4
  %10 = alloca i32, align 4
  store ptr %0, ptr %3, align 8, !tbaa !60
  call void @llvm.lifetime.start.p0(i64 8, ptr %4) #12
  call void @llvm.lifetime.start.p0(i64 8, ptr %5) #12
  call void @llvm.lifetime.start.p0(i64 4, ptr %6) #12
  call void @llvm.lifetime.start.p0(i64 4, ptr %7) #12
  %11 = load ptr, ptr %3, align 8, !tbaa !60
  %12 = getelementptr inbounds nuw %struct.Ivy_FraigMan_t_, ptr %11, i32 0, i32 5
  %13 = load i32, ptr %12, align 8, !tbaa !100
  %14 = mul nsw i32 %13, 32
  store i32 %14, ptr %7, align 4, !tbaa !44
  call void @llvm.lifetime.start.p0(i64 4, ptr %8) #12
  store i32 0, ptr %8, align 4, !tbaa !44
  call void @llvm.lifetime.start.p0(i64 4, ptr %9) #12
  store i32 -1, ptr %9, align 4, !tbaa !44
  store i32 1, ptr %6, align 4, !tbaa !44
  br label %15

15:                                               ; preds = %39, %1
  %16 = load i32, ptr %6, align 4, !tbaa !44
  %17 = load i32, ptr %7, align 4, !tbaa !44
  %18 = icmp slt i32 %16, %17
  br i1 %18, label %19, label %42

19:                                               ; preds = %15
  %20 = load i32, ptr %8, align 4, !tbaa !44
  %21 = load ptr, ptr %3, align 8, !tbaa !60
  %22 = getelementptr inbounds nuw %struct.Ivy_FraigMan_t_, ptr %21, i32 0, i32 10
  %23 = load ptr, ptr %22, align 8, !tbaa !112
  %24 = load i32, ptr %6, align 4, !tbaa !44
  %25 = sext i32 %24 to i64
  %26 = getelementptr inbounds i32, ptr %23, i64 %25
  %27 = load i32, ptr %26, align 4, !tbaa !44
  %28 = icmp slt i32 %20, %27
  br i1 %28, label %29, label %38

29:                                               ; preds = %19
  %30 = load ptr, ptr %3, align 8, !tbaa !60
  %31 = getelementptr inbounds nuw %struct.Ivy_FraigMan_t_, ptr %30, i32 0, i32 10
  %32 = load ptr, ptr %31, align 8, !tbaa !112
  %33 = load i32, ptr %6, align 4, !tbaa !44
  %34 = sext i32 %33 to i64
  %35 = getelementptr inbounds i32, ptr %32, i64 %34
  %36 = load i32, ptr %35, align 4, !tbaa !44
  store i32 %36, ptr %8, align 4, !tbaa !44
  %37 = load i32, ptr %6, align 4, !tbaa !44
  store i32 %37, ptr %9, align 4, !tbaa !44
  br label %38

38:                                               ; preds = %29, %19
  br label %39

39:                                               ; preds = %38
  %40 = load i32, ptr %6, align 4, !tbaa !44
  %41 = add nsw i32 %40, 1
  store i32 %41, ptr %6, align 4, !tbaa !44
  br label %15, !llvm.loop !201

42:                                               ; preds = %15
  %43 = load i32, ptr %8, align 4, !tbaa !44
  %44 = icmp eq i32 %43, 0
  br i1 %44, label %45, label %46

45:                                               ; preds = %42
  store i32 0, ptr %2, align 4
  store i32 1, ptr %10, align 4
  br label %94

46:                                               ; preds = %42
  %47 = load ptr, ptr %3, align 8, !tbaa !60
  %48 = getelementptr inbounds nuw %struct.Ivy_FraigMan_t_, ptr %47, i32 0, i32 9
  %49 = load ptr, ptr %48, align 8, !tbaa !111
  %50 = load ptr, ptr %3, align 8, !tbaa !60
  %51 = getelementptr inbounds nuw %struct.Ivy_FraigMan_t_, ptr %50, i32 0, i32 8
  %52 = load i32, ptr %51, align 8, !tbaa !110
  %53 = sext i32 %52 to i64
  %54 = mul i64 4, %53
  call void @llvm.memset.p0.i64(ptr align 4 %49, i8 0, i64 %54, i1 false)
  store i32 0, ptr %6, align 4, !tbaa !44
  br label %55

55:                                               ; preds = %89, %46
  %56 = load i32, ptr %6, align 4, !tbaa !44
  %57 = load ptr, ptr %3, align 8, !tbaa !60
  %58 = getelementptr inbounds nuw %struct.Ivy_FraigMan_t_, ptr %57, i32 0, i32 3
  %59 = load ptr, ptr %58, align 8, !tbaa !70
  %60 = getelementptr inbounds nuw %struct.Ivy_Man_t_, ptr %59, i32 0, i32 0
  %61 = load ptr, ptr %60, align 8, !tbaa !137
  %62 = call i32 @Vec_PtrSize(ptr noundef %61)
  %63 = icmp slt i32 %56, %62
  br i1 %63, label %64, label %72

64:                                               ; preds = %55
  %65 = load ptr, ptr %3, align 8, !tbaa !60
  %66 = getelementptr inbounds nuw %struct.Ivy_FraigMan_t_, ptr %65, i32 0, i32 3
  %67 = load ptr, ptr %66, align 8, !tbaa !70
  %68 = getelementptr inbounds nuw %struct.Ivy_Man_t_, ptr %67, i32 0, i32 0
  %69 = load ptr, ptr %68, align 8, !tbaa !137
  %70 = load i32, ptr %6, align 4, !tbaa !44
  %71 = call ptr @Vec_PtrEntry(ptr noundef %69, i32 noundef %70)
  store ptr %71, ptr %5, align 8, !tbaa !72
  br label %72

72:                                               ; preds = %64, %55
  %73 = phi i1 [ false, %55 ], [ true, %64 ]
  br i1 %73, label %74, label %92

74:                                               ; preds = %72
  %75 = load ptr, ptr %5, align 8, !tbaa !72
  %76 = call ptr @Ivy_ObjSim(ptr noundef %75)
  store ptr %76, ptr %4, align 8, !tbaa !102
  %77 = load ptr, ptr %4, align 8, !tbaa !102
  %78 = getelementptr inbounds nuw %struct.Ivy_FraigSim_t_, ptr %77, i32 0, i32 4
  %79 = getelementptr inbounds [0 x i32], ptr %78, i64 0, i64 0
  %80 = load i32, ptr %9, align 4, !tbaa !44
  %81 = call i32 @Ivy_InfoHasBit(ptr noundef %79, i32 noundef %80)
  %82 = icmp ne i32 %81, 0
  br i1 %82, label %83, label %88

83:                                               ; preds = %74
  %84 = load ptr, ptr %3, align 8, !tbaa !60
  %85 = getelementptr inbounds nuw %struct.Ivy_FraigMan_t_, ptr %84, i32 0, i32 9
  %86 = load ptr, ptr %85, align 8, !tbaa !111
  %87 = load i32, ptr %6, align 4, !tbaa !44
  call void @Ivy_InfoSetBit(ptr noundef %86, i32 noundef %87)
  br label %88

88:                                               ; preds = %83, %74
  br label %89

89:                                               ; preds = %88
  %90 = load i32, ptr %6, align 4, !tbaa !44
  %91 = add nsw i32 %90, 1
  store i32 %91, ptr %6, align 4, !tbaa !44
  br label %55, !llvm.loop !202

92:                                               ; preds = %72
  %93 = load i32, ptr %8, align 4, !tbaa !44
  store i32 %93, ptr %2, align 4
  store i32 1, ptr %10, align 4
  br label %94

94:                                               ; preds = %92, %45
  call void @llvm.lifetime.end.p0(i64 4, ptr %9) #12
  call void @llvm.lifetime.end.p0(i64 4, ptr %8) #12
  call void @llvm.lifetime.end.p0(i64 4, ptr %7) #12
  call void @llvm.lifetime.end.p0(i64 4, ptr %6) #12
  call void @llvm.lifetime.end.p0(i64 8, ptr %5) #12
  call void @llvm.lifetime.end.p0(i64 8, ptr %4) #12
  %95 = load i32, ptr %2, align 4
  ret i32 %95
}