; Function Attrs: nofree norecurse nosync nounwind memory(readwrite, inaccessiblemem: none) uwtable
define range(i32 0, -2147483648) i32 @Ivy_FraigSelectBestPat(ptr noundef readonly captures(none) %0) local_unnamed_addr #9 {
  %2 = getelementptr inbounds nuw i8, ptr %0, i64 40
  %3 = load i32, ptr %2, align 8, !tbaa !96
  %4 = icmp sgt i32 %3, 0
  br i1 %4, label %.lr.ph, label %.critedge

.lr.ph:                                           ; preds = %1
  %5 = shl i32 %3, 5
  %6 = getelementptr inbounds nuw i8, ptr %0, i64 80
  %7 = load ptr, ptr %6, align 8, !tbaa !110
  %smax = tail call i32 @llvm.smax.i32(i32 %5, i32 2)
  %wide.trip.count = zext nneg i32 %smax to i64
  br label %8

8:                                                ; preds = %.lr.ph, %8
  %indvars.iv = phi i64 [ 1, %.lr.ph ], [ %indvars.iv.next, %8 ]
  %.035 = phi i32 [ -1, %.lr.ph ], [ %spec.select30, %8 ]
  %.02434 = phi i32 [ 0, %.lr.ph ], [ %spec.select, %8 ]
  %9 = getelementptr inbounds nuw i32, ptr %7, i64 %indvars.iv
  %10 = load i32, ptr %9, align 4, !tbaa !38
  %11 = icmp slt i32 %.02434, %10
  %spec.select = tail call i32 @llvm.smax.i32(i32 %.02434, i32 %10)
  %12 = trunc nuw nsw i64 %indvars.iv to i32
  %spec.select30 = select i1 %11, i32 %12, i32 %.035
  %indvars.iv.next = add nuw nsw i64 %indvars.iv, 1
  %exitcond.not = icmp eq i64 %indvars.iv.next, %wide.trip.count
  br i1 %exitcond.not, label %._crit_edge, label %8, !llvm.loop !203

._crit_edge:                                      ; preds = %8
  %13 = icmp eq i32 %spec.select, 0
  br i1 %13, label %.critedge, label %14

14:                                               ; preds = %._crit_edge
  %15 = getelementptr inbounds nuw i8, ptr %0, i64 72
  %16 = load ptr, ptr %15, align 8, !tbaa !109
  %17 = getelementptr inbounds nuw i8, ptr %0, i64 64
  %18 = load i32, ptr %17, align 8, !tbaa !108
  %19 = sext i32 %18 to i64
  %20 = shl nsw i64 %19, 2
  tail call void @llvm.memset.p0.i64(ptr align 4 %16, i8 0, i64 %20, i1 false)
  %21 = getelementptr inbounds nuw i8, ptr %0, i64 24
  %22 = load ptr, ptr %21, align 8, !tbaa !86
  %23 = load ptr, ptr %22, align 8, !tbaa !111
  %24 = getelementptr i8, ptr %23, i64 4
  %.val37 = load i32, ptr %24, align 4, !tbaa !47
  %25 = icmp sgt i32 %.val37, 0
  br i1 %25, label %.lr.ph40, label %.critedge

.lr.ph40:                                         ; preds = %14
  %26 = getelementptr i8, ptr %23, i64 8
  %.val31 = load ptr, ptr %26, align 8, !tbaa !49
  %27 = ashr i32 %spec.select30, 5
  %28 = sext i32 %27 to i64
  %29 = and i32 %spec.select30, 31
  %30 = shl nuw i32 1, %29
  br label %31

31:                                               ; preds = %.lr.ph40, %49
  %.val45 = phi i32 [ %.val37, %.lr.ph40 ], [ %.val, %49 ]
  %indvars.iv42 = phi i64 [ 0, %.lr.ph40 ], [ %indvars.iv.next43, %49 ]
  %32 = getelementptr inbounds nuw ptr, ptr %.val31, i64 %indvars.iv42
  %33 = load ptr, ptr %32, align 8, !tbaa !51
  %34 = getelementptr i8, ptr %33, i64 32
  %.val32 = load ptr, ptr %34, align 8, !tbaa !103
  %35 = getelementptr inbounds nuw i8, ptr %.val32, i64 32
  %36 = getelementptr inbounds i32, ptr %35, i64 %28
  %37 = load i32, ptr %36, align 4, !tbaa !38
  %38 = and i32 %37, %30
  %.not = icmp eq i32 %38, 0
  br i1 %.not, label %49, label %39

39:                                               ; preds = %31
  %40 = load ptr, ptr %15, align 8, !tbaa !109
  %41 = trunc nuw nsw i64 %indvars.iv42 to i32
  %42 = and i32 %41, 31
  %43 = shl nuw i32 1, %42
  %44 = lshr i64 %indvars.iv42, 5
  %45 = and i64 %44, 134217727
  %46 = getelementptr inbounds nuw i32, ptr %40, i64 %45
  %47 = load i32, ptr %46, align 4, !tbaa !38
  %48 = or i32 %47, %43
  store i32 %48, ptr %46, align 4, !tbaa !38
  %.val.pre = load i32, ptr %24, align 4, !tbaa !47
  br label %49

49:                                               ; preds = %31, %39
  %.val = phi i32 [ %.val45, %31 ], [ %.val.pre, %39 ]
  %indvars.iv.next43 = add nuw nsw i64 %indvars.iv42, 1
  %50 = sext i32 %.val to i64
  %51 = icmp slt i64 %indvars.iv.next43, %50
  br i1 %51, label %31, label %.critedge, !llvm.loop !204

.critedge:                                        ; preds = %49, %1, %14, %._crit_edge
  %.024.lcssa49 = phi i32 [ %spec.select, %14 ], [ 0, %._crit_edge ], [ 0, %1 ], [ %spec.select, %49 ]
  ret i32 %.024.lcssa49
}